; Function Attrs: mustprogress uwtable
define dso_local void @_ZN28BM_rcVector_PushPreallocated4BodyEv() local_unnamed_addr #3 align 2 personality ptr @__gxx_personality_v0 {
  %1 = invoke noundef ptr @_Z21rcAssertFailGetCustomv()
          to label %.noexc unwind label %.loopexit.split-lp

.noexc:                                           ; preds = %0
  %2 = invoke noundef ptr @_Z7rcAllocm11rcAllocHint(i64 noundef 400000, i32 noundef 1)
          to label %.noexc3 unwind label %.loopexit.split-lp

.noexc3:                                          ; preds = %.noexc
  %.not.i.i = icmp eq ptr %2, null
  br i1 %.not.i.i, label %_ZN12rcVectorBaseIiL11rcAllocHint1EE7reserveEl.exit.preheader, label %.loopexit.i

.loopexit.i:                                      ; preds = %.noexc3
  invoke void @_Z6rcFreePv(ptr noundef null)
          to label %_ZN12rcVectorBaseIiL11rcAllocHint1EE7reserveEl.exit.preheader unwind label %.loopexit.split-lp

_ZN12rcVectorBaseIiL11rcAllocHint1EE7reserveEl.exit.preheader: ; preds = %.loopexit.i, %.noexc3
  %.sroa.8.034.ph = phi i64 [ 0, %.noexc3 ], [ 100000, %.loopexit.i ]
  br label %_ZN12rcVectorBaseIiL11rcAllocHint1EE7reserveEl.exit

_ZN12rcVectorBaseIiL11rcAllocHint1EE7reserveEl.exit: ; preds = %_ZN12rcVectorBaseIiL11rcAllocHint1EE7reserveEl.exit.preheader, %_ZN12rcVectorBaseIiL11rcAllocHint1EE9push_backERKi.exit
  %.sroa.0.036 = phi i64 [ %.sroa.0.1, %_ZN12rcVectorBaseIiL11rcAllocHint1EE9push_backERKi.exit ], [ 0, %_ZN12rcVectorBaseIiL11rcAllocHint1EE7reserveEl.exit.preheader ]
  %.sroa.13.135 = phi ptr [ %.sroa.13.3, %_ZN12rcVectorBaseIiL11rcAllocHint1EE9push_backERKi.exit ], [ %2, %_ZN12rcVectorBaseIiL11rcAllocHint1EE7reserveEl.exit.preheader ]
  %.sroa.8.034 = phi i64 [ %.sroa.8.2, %_ZN12rcVectorBaseIiL11rcAllocHint1EE9push_backERKi.exit ], [ %.sroa.8.034.ph, %_ZN12rcVectorBaseIiL11rcAllocHint1EE7reserveEl.exit.preheader ]
  %3 = icmp slt i64 %.sroa.0.036, %.sroa.8.034
  br i1 %3, label %4, label %6

4:                                                ; preds = %_ZN12rcVectorBaseIiL11rcAllocHint1EE7reserveEl.exit
  %5 = getelementptr inbounds nuw i32, ptr %.sroa.13.135, i64 %.sroa.0.036
  store i32 2, ptr %5, align 4
  br label %_ZN12rcVectorBaseIiL11rcAllocHint1EE9push_backERKi.exit

6:                                                ; preds = %_ZN12rcVectorBaseIiL11rcAllocHint1EE7reserveEl.exit
  %7 = invoke noundef ptr @_Z21rcAssertFailGetCustomv()
          to label %.noexc10 unwind label %.loopexit

.noexc10:                                         ; preds = %6
  %8 = add nsw i64 %.sroa.8.034, 1
  %9 = shl nsw i64 %.sroa.8.034, 1
  %..i.i = tail call i64 @llvm.smax.i64(i64 %9, i64 %8)
  %10 = invoke noundef ptr @_Z21rcAssertFailGetCustomv()
          to label %.noexc11 unwind label %.loopexit

.noexc11:                                         ; preds = %.noexc10
  %11 = icmp eq ptr %10, null
  %12 = icmp slt i64 %..i.i, 2305843009213693952
  %or.cond.i.i = or i1 %12, %11
  br i1 %or.cond.i.i, label %.noexc12, label %13

13:                                               ; preds = %.noexc11
  invoke void %10(ptr noundef nonnull @.str.43, ptr noundef nonnull @.str.42, i32 noundef 187)
          to label %.noexc12 unwind label %.loopexit

.noexc12:                                         ; preds = %13, %.noexc11
  %14 = shl i64 %..i.i, 2
  %15 = invoke noundef ptr @_Z7rcAllocm11rcAllocHint(i64 noundef %14, i32 noundef 1)
          to label %.noexc13 unwind label %.loopexit

.noexc13:                                         ; preds = %.noexc12
  %.not.i.i5 = icmp ne ptr %15, null
  %16 = icmp ne i64 %.sroa.0.036, 0
  %or.cond = and i1 %.not.i.i5, %16
  br i1 %or.cond, label %.lr.ph.i.i.i6, label %_ZN12rcVectorBaseIiL11rcAllocHint1EE17allocate_and_copyEl.exit.i

.lr.ph.i.i.i6:                                    ; preds = %.noexc13, %.lr.ph.i.i.i6
  %.07.i.i.i7 = phi i64 [ %20, %.lr.ph.i.i.i6 ], [ 0, %.noexc13 ]
  %17 = getelementptr inbounds nuw i32, ptr %15, i64 %.07.i.i.i7
  %18 = getelementptr inbounds nuw i32, ptr %.sroa.13.135, i64 %.07.i.i.i7
  %19 = load i32, ptr %18, align 4
  store i32 %19, ptr %17, align 4
  %20 = add nuw nsw i64 %.07.i.i.i7, 1
  %exitcond.not.i.i.i8 = icmp eq i64 %20, %.sroa.0.036
  br i1 %exitcond.not.i.i.i8, label %_ZN12rcVectorBaseIiL11rcAllocHint1EE17allocate_and_copyEl.exit.i, label %.lr.ph.i.i.i6, !llvm.loop !10

_ZN12rcVectorBaseIiL11rcAllocHint1EE17allocate_and_copyEl.exit.i: ; preds = %.lr.ph.i.i.i6, %.noexc13
  %21 = getelementptr inbounds nuw i32, ptr %15, i64 %.sroa.0.036
  store i32 2, ptr %21, align 4
  invoke void @_Z6rcFreePv(ptr noundef %.sroa.13.135)
          to label %_ZN12rcVectorBaseIiL11rcAllocHint1EE9push_backERKi.exit unwind label %.loopexit

_ZN12rcVectorBaseIiL11rcAllocHint1EE9push_backERKi.exit: ; preds = %4, %_ZN12rcVectorBaseIiL11rcAllocHint1EE17allocate_and_copyEl.exit.i
  %.sroa.8.2 = phi i64 [ %.sroa.8.034, %4 ], [ %..i.i, %_ZN12rcVectorBaseIiL11rcAllocHint1EE17allocate_and_copyEl.exit.i ]
  %.sroa.13.3 = phi ptr [ %.sroa.13.135, %4 ], [ %15, %_ZN12rcVectorBaseIiL11rcAllocHint1EE17allocate_and_copyEl.exit.i ]
  %.sroa.0.1 = add nuw nsw i64 %.sroa.0.036, 1
  %exitcond.not = icmp eq i64 %.sroa.0.1, 100000
  br i1 %exitcond.not, label %26, label %_ZN12rcVectorBaseIiL11rcAllocHint1EE7reserveEl.exit, !llvm.loop !13

.loopexit:                                        ; preds = %6, %.noexc10, %13, %.noexc12, %_ZN12rcVectorBaseIiL11rcAllocHint1EE17allocate_and_copyEl.exit.i
  %lpad.loopexit = landingpad { ptr, i32 }
          cleanup
  br label %22

.loopexit.split-lp:                               ; preds = %0, %.noexc, %.loopexit.i
  %lpad.loopexit.split-lp = landingpad { ptr, i32 }
          cleanup
  br label %22

22:                                               ; preds = %.loopexit.split-lp, %.loopexit
  %.sroa.13.0 = phi ptr [ %.sroa.13.135, %.loopexit ], [ null, %.loopexit.split-lp ]
  %lpad.phi = phi { ptr, i32 } [ %lpad.loopexit, %.loopexit ], [ %lpad.loopexit.split-lp, %.loopexit.split-lp ]
  invoke void @_Z6rcFreePv(ptr noundef %.sroa.13.0)
          to label %_ZN12rcTempVectorIiED2Ev.exit unwind label %23

23:                                               ; preds = %22
  %24 = landingpad { ptr, i32 }
          catch ptr null
  %25 = extractvalue { ptr, i32 } %24, 0
  tail call void @__clang_call_terminate(ptr %25) #17
  unreachable

_ZN12rcTempVectorIiED2Ev.exit:                    ; preds = %22
  resume { ptr, i32 } %lpad.phi

26:                                               ; preds = %_ZN12rcVectorBaseIiL11rcAllocHint1EE9push_backERKi.exit
  %27 = tail call ptr asm sideeffect "", "=r,0,~{dirflag},~{fpsr},~{flags}"(ptr nonnull %.sroa.13.3) #16, !srcloc !7
  invoke void @_Z6rcFreePv(ptr noundef nonnull %.sroa.13.3)
          to label %_ZN12rcTempVectorIiED2Ev.exit15 unwind label %28

28:                                               ; preds = %26
  %29 = landingpad { ptr, i32 }
          catch ptr null
  %30 = extractvalue { ptr, i32 } %29, 0
  tail call void @__clang_call_terminate(ptr %30) #17
  unreachable

_ZN12rcTempVectorIiED2Ev.exit15:                  ; preds = %26
  ret void
}